; Function Attrs: mustprogress nofree norecurse nosync nounwind willreturn memory(argmem: read) uwtable
define internal range(i32 0, 65536) i32 @fold_shortcut_conv_num_int(ptr noundef readonly captures(none) %0) #6 {
  %2 = getelementptr inbounds nuw i8, ptr %0, i64 192
  %3 = getelementptr inbounds nuw i8, ptr %0, i64 196
  %4 = load i8, ptr %3, align 4, !tbaa !28
  %5 = and i8 %4, 64
  %.not = icmp eq i8 %5, 0
  br i1 %.not, label %6, label %14

6:                                                ; preds = %1
  %7 = getelementptr inbounds nuw i8, ptr %0, i64 194
  %8 = load i16, ptr %7, align 2, !tbaa !28
  %9 = and i16 %8, 31
  %10 = icmp ne i16 %9, 14
  %.not4 = icmp sgt i8 %4, -1
  %or.cond = or i1 %.not4, %10
  br i1 %or.cond, label %14, label %11

11:                                               ; preds = %6
  %12 = load i16, ptr %2, align 8, !tbaa !28
  %13 = zext i16 %12 to i32
  br label %14

14:                                               ; preds = %6, %1, %11
  %.0 = phi i32 [ %13, %11 ], [ 0, %1 ], [ 0, %6 ]
  ret i32 %.0
}